target datalayout = "e-m:e-p270:32:32-p271:32:32-p272:64:64-i64:64-i128:128-f80:128-n8:16:32:64-S128"
target triple = "x86_64-unknown-linux-gnu"

%"struct.std::pair" = type { i8, i8 }
%"class.std::__cxx11::basic_string" = type { %"struct.std::__cxx11::basic_string<char>::_Alloc_hider", i64, %union.anon }
%"struct.std::__cxx11::basic_string<char>::_Alloc_hider" = type { ptr }
%union.anon = type { i64, [8 x i8] }
%"class.std::unique_ptr.24" = type { %"struct.std::__uniq_ptr_data.25" }
%"struct.std::__uniq_ptr_data.25" = type { %"class.std::__uniq_ptr_impl.26" }
%"class.std::__uniq_ptr_impl.26" = type { %"class.std::tuple.27" }
%"class.std::tuple.27" = type { %"struct.std::_Tuple_impl.28" }
%"struct.std::_Tuple_impl.28" = type { %"struct.std::_Head_base.31" }
%"struct.std::_Head_base.31" = type { ptr }
%"class.proxygen::HTTPMessage" = type { %"class.std::chrono::time_point", %"class.folly::SocketAddress", %"class.std::__cxx11::basic_string", %"class.std::__cxx11::basic_string", %"class.std::__cxx11::basic_string", %"class.std::__cxx11::basic_string", %"struct.proxygen::HTTPMessage::Fields", %"class.std::map", %"class.std::map.8", %"class.proxygen::HTTPHeaders", %"class.std::unique_ptr.24", %"struct.proxygen::HTTPHeaderSize", i32, %"class.std::unique_ptr.24", i32, i32, ptr, ptr, %"class.std::unique_ptr", i8, [7 x i8], %"class.folly::Optional.32", %"struct.std::pair", i8, i32 }
%"class.std::chrono::time_point" = type { %"class.std::chrono::duration" }
%"class.std::chrono::duration" = type { i64 }
%"class.folly::SocketAddress" = type <{ %"union.folly::SocketAddress::AddrStorage", i16, i8, [5 x i8] }>
%"union.folly::SocketAddress::AddrStorage" = type { %"struct.folly::SocketAddress::ExternalUnixAddr", [8 x i8] }
%"struct.folly::SocketAddress::ExternalUnixAddr" = type { ptr, i32 }
%"struct.proxygen::HTTPMessage::Fields" = type { i8, %"union.proxygen::HTTPMessage::Fields::Data" }
%"union.proxygen::HTTPMessage::Fields::Data" = type { %"struct.proxygen::HTTPMessage::Response", [136 x i8] }
%"struct.proxygen::HTTPMessage::Response" = type { i16, %"class.std::__cxx11::basic_string", %"class.std::__cxx11::basic_string" }
%"class.std::map" = type { %"class.std::_Rb_tree" }
%"class.std::_Rb_tree" = type { %"struct.std::_Rb_tree<folly::Range<const char *>, std::pair<const folly::Range<const char *>, folly::Range<const char *>>, std::_Select1st<std::pair<const folly::Range<const char *>, folly::Range<const char *>>>, std::less<folly::Range<const char *>>>::_Rb_tree_impl" }
%"struct.std::_Rb_tree<folly::Range<const char *>, std::pair<const folly::Range<const char *>, folly::Range<const char *>>, std::_Select1st<std::pair<const folly::Range<const char *>, folly::Range<const char *>>>, std::less<folly::Range<const char *>>>::_Rb_tree_impl" = type { %"struct.std::_Rb_tree_key_compare", %"struct.std::_Rb_tree_header" }
%"struct.std::_Rb_tree_key_compare" = type { %"struct.std::less" }
%"struct.std::less" = type { i8 }
%"struct.std::_Rb_tree_header" = type { %"struct.std::_Rb_tree_node_base", i64 }
%"struct.std::_Rb_tree_node_base" = type { i32, ptr, ptr, ptr }
%"class.std::map.8" = type { %"class.std::_Rb_tree.9" }
%"class.std::_Rb_tree.9" = type { %"struct.std::_Rb_tree<std::__cxx11::basic_string<char>, std::pair<const std::__cxx11::basic_string<char>, std::__cxx11::basic_string<char>>, std::_Select1st<std::pair<const std::__cxx11::basic_string<char>, std::__cxx11::basic_string<char>>>, std::less<std::__cxx11::basic_string<char>>>::_Rb_tree_impl" }
%"struct.std::_Rb_tree<std::__cxx11::basic_string<char>, std::pair<const std::__cxx11::basic_string<char>, std::__cxx11::basic_string<char>>, std::_Select1st<std::pair<const std::__cxx11::basic_string<char>, std::__cxx11::basic_string<char>>>, std::less<std::__cxx11::basic_string<char>>>::_Rb_tree_impl" = type { %"struct.std::_Rb_tree_key_compare.13", %"struct.std::_Rb_tree_header" }
%"struct.std::_Rb_tree_key_compare.13" = type { %"struct.std::less.14" }
%"struct.std::less.14" = type { i8 }
%"class.proxygen::HTTPHeaders" = type { %"class.std::unique_ptr.16", i64, i64, i64 }
%"class.std::unique_ptr.16" = type { %"struct.std::__uniq_ptr_data.17" }
%"struct.std::__uniq_ptr_data.17" = type { %"class.std::__uniq_ptr_impl.18" }
%"class.std::__uniq_ptr_impl.18" = type { %"class.std::tuple.19" }
%"class.std::tuple.19" = type { %"struct.std::_Tuple_impl.20" }
%"struct.std::_Tuple_impl.20" = type { %"struct.std::_Head_base.23" }
%"struct.std::_Head_base.23" = type { ptr }
%"struct.proxygen::HTTPHeaderSize" = type { i32, i32, i32 }
%"class.std::unique_ptr" = type { %"struct.std::__uniq_ptr_data" }
%"struct.std::__uniq_ptr_data" = type { %"class.std::__uniq_ptr_impl" }
%"class.std::__uniq_ptr_impl" = type { %"class.std::tuple" }
%"class.std::tuple" = type { %"struct.std::_Tuple_impl" }
%"struct.std::_Tuple_impl" = type { %"struct.std::_Head_base.4" }
%"struct.std::_Head_base.4" = type { ptr }
%"class.folly::Optional.32" = type { %"struct.folly::Optional<std::tuple<unsigned long, bool, unsigned char>>::StorageTriviallyDestructible" }
%"struct.folly::Optional<std::tuple<unsigned long, bool, unsigned char>>::StorageTriviallyDestructible" = type <{ %union.anon.33, i8, [7 x i8] }>
%union.anon.33 = type { %"class.std::tuple.34" }
%"class.std::tuple.34" = type { %"struct.std::_Tuple_impl.35" }
%"struct.std::_Tuple_impl.35" = type { %"struct.std::_Tuple_impl.36", %"struct.std::_Head_base.40" }
%"struct.std::_Tuple_impl.36" = type { %"struct.std::_Tuple_impl.37", %"struct.std::_Head_base.39" }
%"struct.std::_Tuple_impl.37" = type { %"struct.std::_Head_base.38" }
%"struct.std::_Head_base.38" = type { i8 }
%"struct.std::_Head_base.39" = type { i8 }
%"struct.std::_Head_base.40" = type { i64 }
%"class.folly::Range" = type { ptr, ptr }
%"struct.proxygen::HTTPMessage::Request" = type <{ %"class.folly::SocketAddress", %"class.folly::Optional", %"class.boost::variant", %"class.folly::Range", %"class.folly::Range", %"class.std::unique_ptr", %"class.std::unique_ptr", %"class.std::__cxx11::basic_string", i16, [6 x i8] }>
%"class.folly::Optional" = type { %"struct.folly::Optional<proxygen::HTTPMessage::IPPort>::StorageNonTriviallyDestructible" }
%"struct.folly::Optional<proxygen::HTTPMessage::IPPort>::StorageNonTriviallyDestructible" = type <{ %union.anon.2, i8, [7 x i8] }>
%union.anon.2 = type { %"struct.proxygen::HTTPMessage::IPPort" }
%"struct.proxygen::HTTPMessage::IPPort" = type { %"class.std::__cxx11::basic_string", %"class.std::__cxx11::basic_string" }
%"class.boost::variant" = type { i32, [4 x i8], %"class.boost::aligned_storage" }
%"class.boost::aligned_storage" = type { %"struct.boost::detail::aligned_storage::aligned_storage_imp" }
%"struct.boost::detail::aligned_storage::aligned_storage_imp" = type { %"union.boost::detail::aligned_storage::aligned_storage_imp<8, 8>::data_t" }
%"union.boost::detail::aligned_storage::aligned_storage_imp<8, 8>::data_t" = type { [8 x i8] }

; Function Attrs: mustprogress nounwind uwtable
define linkonce_odr noundef i64 @_ZNK5folly5RangeIPKcE4sizeEv(ptr noundef nonnull align 8 dereferenceable(16) %this) #4 comdat align 2 {
entry:
  %this.addr = alloca ptr, align 8
  store ptr %this, ptr %this.addr, align 8
  %this1 = load ptr, ptr %this.addr, align 8
  %e_ = getelementptr inbounds %"class.folly::Range", ptr %this1, i32 0, i32 1
  %0 = load ptr, ptr %e_, align 8
  %b_ = getelementptr inbounds %"class.folly::Range", ptr %this1, i32 0, i32 0
  %1 = load ptr, ptr %b_, align 8
  %sub.ptr.lhs.cast = ptrtoint ptr %0 to i64
  %sub.ptr.rhs.cast = ptrtoint ptr %1 to i64
  %sub.ptr.sub = sub i64 %sub.ptr.lhs.cast, %sub.ptr.rhs.cast
  ret i64 %sub.ptr.sub
}

; Function Attrs: mustprogress uwtable
define noundef zeroext i1 @_ZN8proxygen11HTTPMessage13setQueryParamERKNSt7__cxx1112basic_stringIcSt11char_traitsIcESaIcEEES8_b(ptr noundef nonnull align 8 dereferenceable(616) %this, ptr noundef nonnull align 8 dereferenceable(32) %name, ptr noundef nonnull align 8 dereferenceable(32) %value, i1 noundef zeroext %strict) #3 align 2 personality ptr @__gxx_personality_v0 {
entry:
  %this.addr = alloca ptr, align 8
  %name.addr = alloca ptr, align 8
  %value.addr = alloca ptr, align 8
  %strict.addr = alloca i8, align 1
  %query = alloca %"class.std::__cxx11::basic_string", align 8
  %exn.slot = alloca ptr, align 8
  %ehselector.slot = alloca i32, align 4
  store ptr %this, ptr %this.addr, align 8
  store ptr %name, ptr %name.addr, align 8
  store ptr %value, ptr %value.addr, align 8
  %frombool = zext i1 %strict to i8
  store i8 %frombool, ptr %strict.addr, align 1
  %this1 = load ptr, ptr %this.addr, align 8
  %parsedQueryParams_ = getelementptr inbounds %"class.proxygen::HTTPMessage", ptr %this1, i32 0, i32 23
  %bf.load = load i8, ptr %parsedQueryParams_, align 2
  %bf.lshr = lshr i8 %bf.load, 1
  %bf.clear = and i8 %bf.lshr, 1
  %bf.cast = trunc i8 %bf.clear to i1
  br i1 %bf.cast, label %if.end, label %if.then

if.then:                                          ; preds = %entry
  call void @_ZNK8proxygen11HTTPMessage16parseQueryParamsEv(ptr noundef nonnull align 8 dereferenceable(616) %this1)
  br label %if.end

if.end:                                           ; preds = %if.then, %entry
  %0 = load ptr, ptr %value.addr, align 8
  %queryParams_ = getelementptr inbounds %"class.proxygen::HTTPMessage", ptr %this1, i32 0, i32 8
  %1 = load ptr, ptr %name.addr, align 8
  %call = call noundef nonnull align 8 dereferenceable(32) ptr @_ZNSt3mapINSt7__cxx1112basic_stringIcSt11char_traitsIcESaIcEEES5_St4lessIS5_ESaISt4pairIKS5_S5_EEEixERS9_(ptr noundef nonnull align 8 dereferenceable(48) %queryParams_, ptr noundef nonnull align 8 dereferenceable(32) %1)
  %call2 = call noundef nonnull align 8 dereferenceable(32) ptr @_ZNSt7__cxx1112basic_stringIcSt11char_traitsIcESaIcEEaSERKS4_(ptr noundef nonnull align 8 dereferenceable(32) %call, ptr noundef nonnull align 8 dereferenceable(32) %0)
  %queryParams_3 = getelementptr inbounds %"class.proxygen::HTTPMessage", ptr %this1, i32 0, i32 8
  %call4 = call noundef nonnull align 8 dereferenceable(202) ptr @_ZN8proxygen11HTTPMessage7requestEv(ptr noundef nonnull align 8 dereferenceable(616) %this1)
  %query_ = getelementptr inbounds %"struct.proxygen::HTTPMessage::Request", ptr %call4, i32 0, i32 4
  %call5 = call noundef i64 @_ZNK5folly5RangeIPKcE4sizeEv(ptr noundef nonnull align 8 dereferenceable(16) %query_)
  %conv = trunc i64 %call5 to i32
  call void @_ZN8proxygen11HTTPMessage17createQueryStringERKSt3mapINSt7__cxx1112basic_stringIcSt11char_traitsIcESaIcEEES7_St4lessIS7_ESaISt4pairIKS7_S7_EEEj(ptr sret(%"class.std::__cxx11::basic_string") align 8 %query, ptr noundef nonnull align 8 dereferenceable(48) %queryParams_3, i32 noundef %conv)
  %2 = load i8, ptr %strict.addr, align 1
  %tobool = trunc i8 %2 to i1
  %call6 = invoke noundef zeroext i1 @_ZN8proxygen11HTTPMessage18setQueryStringImplERKNSt7__cxx1112basic_stringIcSt11char_traitsIcESaIcEEEbb(ptr noundef nonnull align 8 dereferenceable(616) %this1, ptr noundef nonnull align 8 dereferenceable(32) %query, i1 noundef zeroext false, i1 noundef zeroext %tobool)
          to label %invoke.cont unwind label %lpad

invoke.cont:                                      ; preds = %if.end
  call void @_ZNSt7__cxx1112basic_stringIcSt11char_traitsIcESaIcEED1Ev(ptr noundef nonnull align 8 dereferenceable(32) %query) #2
  ret i1 %call6

lpad:                                             ; preds = %if.end
  %3 = landingpad { ptr, i32 }
          cleanup
  %4 = extractvalue { ptr, i32 } %3, 0
  store ptr %4, ptr %exn.slot, align 8
  %5 = extractvalue { ptr, i32 } %3, 1
  store i32 %5, ptr %ehselector.slot, align 4
  call void @_ZNSt7__cxx1112basic_stringIcSt11char_traitsIcESaIcEED1Ev(ptr noundef nonnull align 8 dereferenceable(32) %query) #2
  br label %eh.resume

eh.resume:                                        ; preds = %lpad
  %exn = load ptr, ptr %exn.slot, align 8
  %sel = load i32, ptr %ehselector.slot, align 4
  %lpad.val = insertvalue { ptr, i32 } poison, ptr %exn, 0
  %lpad.val7 = insertvalue { ptr, i32 } %lpad.val, i32 %sel, 1
  resume { ptr, i32 } %lpad.val7
}