; Function Attrs: mustprogress uwtable
define noundef zeroext i1 @_ZN8proxygen11HTTPMessage13setQueryParamERKNSt7__cxx1112basic_stringIcSt11char_traitsIcESaIcEEES8_b(ptr noundef nonnull align 8 dereferenceable(616) %this, ptr noundef nonnull align 8 dereferenceable(32) %name, ptr noundef nonnull align 8 dereferenceable(32) %value, i1 noundef zeroext %strict) local_unnamed_addr #2 align 2 personality ptr @__gxx_personality_v0 {
entry:
  %query = alloca %"class.std::__cxx11::basic_string", align 8
  %parsedQueryParams_ = getelementptr inbounds i8, ptr %this, i64 610
  %bf.load = load i8, ptr %parsedQueryParams_, align 2
  %0 = and i8 %bf.load, 2
  %bf.cast.not = icmp eq i8 %0, 0
  br i1 %bf.cast.not, label %if.then, label %if.end

if.then:                                          ; preds = %entry
  tail call void @_ZNK8proxygen11HTTPMessage16parseQueryParamsEv(ptr noundef nonnull align 8 dereferenceable(616) %this)
  br label %if.end

if.end:                                           ; preds = %if.then, %entry
  %queryParams_ = getelementptr inbounds i8, ptr %this, i64 432
  %call = tail call noundef nonnull align 8 dereferenceable(32) ptr @_ZNSt3mapINSt7__cxx1112basic_stringIcSt11char_traitsIcESaIcEEES5_St4lessIS5_ESaISt4pairIKS5_S5_EEEixERS9_(ptr noundef nonnull align 8 dereferenceable(48) %queryParams_, ptr noundef nonnull align 8 dereferenceable(32) %name)
  %call2 = tail call noundef nonnull align 8 dereferenceable(32) ptr @_ZNSt7__cxx1112basic_stringIcSt11char_traitsIcESaIcEEaSERKS4_(ptr noundef nonnull align 8 dereferenceable(32) %call, ptr noundef nonnull align 8 dereferenceable(32) %value)
  %call4 = tail call noundef nonnull align 8 dereferenceable(202) ptr @_ZN8proxygen11HTTPMessage7requestEv(ptr noundef nonnull align 8 dereferenceable(616) %this)
  %query_ = getelementptr inbounds i8, ptr %call4, i64 136
  %e_.i = getelementptr inbounds i8, ptr %call4, i64 144
  %1 = load ptr, ptr %e_.i, align 8
  %2 = load ptr, ptr %query_, align 8
  %sub.ptr.lhs.cast.i = ptrtoint ptr %1 to i64
  %sub.ptr.rhs.cast.i = ptrtoint ptr %2 to i64
  %sub.ptr.sub.i = sub i64 %sub.ptr.lhs.cast.i, %sub.ptr.rhs.cast.i
  %conv = trunc i64 %sub.ptr.sub.i to i32
  call void @_ZN8proxygen11HTTPMessage17createQueryStringERKSt3mapINSt7__cxx1112basic_stringIcSt11char_traitsIcESaIcEEES7_St4lessIS7_ESaISt4pairIKS7_S7_EEEj(ptr nonnull sret(%"class.std::__cxx11::basic_string") align 8 %query, ptr noundef nonnull align 8 dereferenceable(48) %queryParams_, i32 noundef %conv)
  %call6 = invoke noundef zeroext i1 @_ZN8proxygen11HTTPMessage18setQueryStringImplERKNSt7__cxx1112basic_stringIcSt11char_traitsIcESaIcEEEbb(ptr noundef nonnull align 8 dereferenceable(616) %this, ptr noundef nonnull align 8 dereferenceable(32) %query, i1 noundef zeroext false, i1 noundef zeroext %strict)
          to label %invoke.cont unwind label %lpad

invoke.cont:                                      ; preds = %if.end
  call void @_ZNSt7__cxx1112basic_stringIcSt11char_traitsIcESaIcEED1Ev(ptr noundef nonnull align 8 dereferenceable(32) %query) #23
  ret i1 %call6

lpad:                                             ; preds = %if.end
  %3 = landingpad { ptr, i32 }
          cleanup
  call void @_ZNSt7__cxx1112basic_stringIcSt11char_traitsIcESaIcEED1Ev(ptr noundef nonnull align 8 dereferenceable(32) %query) #23
  resume { ptr, i32 } %3
}